Certificate:
    Data:
        Version: 3 (0x2)
        Serial Number: 3 (0x3)
    Signature Algorithm: ecdsa-with-SHA256
        Issuer: CN=ovpn0 CA
        Validity
            Not Before: May  5 22:43:08 2017 GMT
            Not After : May  3 22:43:08 2027 GMT
        Subject: CN=achep-mobi
        Subject Public Key Info:
            Public Key Algorithm: rsaEncryption
                Public-Key: (2048 bit)
                Modulus:
                    00:ca:73:f6:12:6f:b5:53:88:09:9c:74:eb:d8:a4:
                    55:74:8a:ea:f7:f9:1a:b2:72:d1:11:de:5f:78:26:
                    75:37:af:8b:59:5d:c2:90:81:3a:2a:0a:78:fe:68:
                    02:53:3d:48:98:fa:a1:f1:8a:b7:47:11:79:7f:9e:
                    2d:16:9e:b9:14:6f:4e:09:16:32:b3:c8:da:4e:ca:
                    e3:48:cf:03:3b:35:25:7a:4f:0e:73:b8:26:af:66:
                    14:be:c8:cd:8f:36:5f:e2:38:52:c5:b5:b4:1e:e0:
                    71:8e:99:52:37:f5:23:3b:0d:fb:0e:e5:72:d5:82:
                    ce:dd:5d:d0:10:66:67:b5:97:4e:b2:fb:02:1f:55:
                    68:76:4f:2f:4c:ca:6e:4b:e3:29:d1:6b:3f:d2:cb:
                    4d:0e:5b:c0:07:46:07:ea:a4:64:25:ac:d7:60:13:
                    c4:5d:93:16:42:36:5e:48:0b:e2:f2:26:22:dc:17:
                    a9:80:de:95:1d:bc:04:9e:5d:bd:3f:e2:60:43:b1:
                    64:00:07:a0:95:88:7b:1a:c6:16:34:b1:15:89:f9:
                    a3:90:aa:df:7d:e2:86:eb:2e:bd:d1:11:2d:00:a5:
                    91:2f:af:20:a3:05:32:0f:11:5f:c6:6e:73:61:bb:
                    41:3e:21:1c:1c:8e:9d:f8:11:fa:04:9c:83:60:48:
                    9e:39
                Exponent: 65537 (0x10001)
        X509v3 extensions:
            X509v3 Basic Constraints: 
                CA:FALSE
            X509v3 Subject Key Identifier: 
                4F:35:4E:47:71:27:C6:7E:83:F7:15:14:E0:0A:E4:E1:4F:2A:52:2E
            X509v3 Authority Key Identifier: 
                keyid:15:34:5F:B6:6F:4A:80:A4:7B:1F:DE:F3:2A:75:ED:DF:6F:4D:44:A3
                DirName:/CN=ovpn0 CA
                serial:C3:C3:CE:3E:79:58:67:DA

            X509v3 Extended Key Usage: 
                TLS Web Client Authentication
            X509v3 Key Usage: 
                Digital Signature
    Signature Algorithm: ecdsa-with-SHA256
         30:65:02:30:36:dc:7e:87:60:49:dd:7b:63:4c:8e:7a:c1:d9:
         c1:38:56:67:94:59:1c:9a:e7:62:06:aa:9d:d2:83:07:e9:14:
         19:33:1d:e2:d4:5d:ee:f2:9c:30:e6:e5:6b:da:eb:f9:02:31:
         00:fc:b6:ad:43:e3:91:1a:f4:c8:1e:99:fe:7c:34:9e:5a:b1:
         70:f4:9f:34:8d:60:49:3b:f1:e2:00:4d:2a:d9:c0:4f:0c:b7:
         ca:44:d4:11:80:11:33:a0:23:08:84:03:64
-----BEGIN CERTIFICATE-----
MIIClzCCAh2gAwIBAgIBAzAKBggqhkjOPQQDAjATMREwDwYDVQQDDAhvdnBuMCBD
QTAeFw0xNzA1MDUyMjQzMDhaFw0yNzA1MDMyMjQzMDhaMBUxEzARBgNVBAMMCmFj
aGVwLW1vYmkwggEiMA0GCSqGSIb3DQEBAQUAA4IBDwAwggEKAoIBAQDKc/YSb7VT
iAmcdOvYpFV0iur3+RqyctER3l94JnU3r4tZXcKQgToqCnj+aAJTPUiY+qHxirdH
EXl/ni0WnrkUb04JFjKzyNpOyuNIzwM7NSV6Tw5zuCavZhS+yM2PNl/iOFLFtbQe
4HGOmVI39SM7DfsO5XLVgs7dXdAQZme1l06y+wIfVWh2Ty9Mym5L4ynRaz/Sy00O
W8AHRgfqpGQlrNdgE8RdkxZCNl5IC+LyJiLcF6mA3pUdvASeXb0/4mBDsWQAB6CV
iHsaxhY0sRWJ+aOQqt994obrLr3RES0ApZEvryCjBTIPEV/GbnNhu0E+IRwcjp34
EfoEnINgSJ45AgMBAAGjgZQwgZEwCQYDVR0TBAIwADAdBgNVHQ4EFgQUTzVOR3En
xn6D9xUU4Ark4U8qUi4wQwYDVR0jBDwwOoAUFTRftm9KgKR7H97zKnXt329NRKOh
F6QVMBMxETAPBgNVBAMMCG92cG4wIENBggkAw8POPnlYZ9owEwYDVR0lBAwwCgYI
KwYBBQUHAwIwCwYDVR0PBAQDAgeAMAoGCCqGSM49BAMCA2gAMGUCMDbcfodgSd17
Y0yOesHZwThWZ5RZHJrnYgaqndKDB+kUGTMd4tRd7vKcMObla9rr+QIxAPy2rUPj
kRr0yB6Z/nw0nlqxcPSfNI1gSTvx4gBNKtnATwy3ykTUEYARM6AjCIQDZA==
-----END CERTIFICATE-----
