Certificate:
    Data:
        Version: 3 (0x2)
        Serial Number: 5 (0x5)
    Signature Algorithm: ecdsa-with-SHA256
        Issuer: CN=ovpn0 CA
        Validity
            Not Before: May  5 22:47:20 2017 GMT
            Not After : May  3 22:47:20 2027 GMT
        Subject: CN=daria
        Subject Public Key Info:
            Public Key Algorithm: id-ecPublicKey
                Public-Key: (384 bit)
                pub: 
                    04:9c:e8:b3:f2:3e:11:41:af:90:d5:f2:8c:92:57:
                    71:f0:a3:ab:98:64:1a:97:9c:76:63:ac:96:6d:e8:
                    b6:c5:2f:9c:49:25:f5:01:6e:d7:7c:ab:19:45:c2:
                    cf:d0:55:42:60:60:7b:a7:e3:13:87:c8:01:b1:e6:
                    a6:a3:75:ae:fa:fd:3a:17:18:93:93:7c:46:ed:ea:
                    70:06:84:c5:f1:61:f6:2d:52:a4:d5:90:81:43:a0:
                    f3:74:03:be:ba:d3:57
                ASN1 OID: secp384r1
                NIST CURVE: P-384
        X509v3 extensions:
            X509v3 Basic Constraints: 
                CA:FALSE
            X509v3 Subject Key Identifier: 
                69:19:14:23:2F:63:91:23:12:F3:28:FF:55:8E:38:5C:5E:A4:33:47
            X509v3 Authority Key Identifier: 
                keyid:15:34:5F:B6:6F:4A:80:A4:7B:1F:DE:F3:2A:75:ED:DF:6F:4D:44:A3
                DirName:/CN=ovpn0 CA
                serial:C3:C3:CE:3E:79:58:67:DA

            X509v3 Extended Key Usage: 
                TLS Web Client Authentication
            X509v3 Key Usage: 
                Digital Signature
    Signature Algorithm: ecdsa-with-SHA256
         30:64:02:30:76:77:e8:5b:a8:ca:ce:2c:bf:36:e7:72:7d:e7:
         7e:47:e9:8f:d9:89:54:c9:01:6f:ce:34:69:e2:09:89:5c:82:
         31:74:dc:20:0d:93:ee:18:72:24:f1:2a:e7:08:43:f5:02:30:
         4f:c6:b3:92:42:96:cf:c8:90:6c:53:21:c5:ca:59:e6:05:17:
         ca:6e:1d:5a:c7:86:0d:31:af:d7:cf:9d:5f:80:64:0d:04:0d:
         b8:22:96:91:34:24:b1:f8:e7:3c:32:b8
-----BEGIN CERTIFICATE-----
MIIB4zCCAWqgAwIBAgIBBTAKBggqhkjOPQQDAjATMREwDwYDVQQDDAhvdnBuMCBD
QTAeFw0xNzA1MDUyMjQ3MjBaFw0yNzA1MDMyMjQ3MjBaMBAxDjAMBgNVBAMMBWRh
cmlhMHYwEAYHKoZIzj0CAQYFK4EEACIDYgAEnOiz8j4RQa+Q1fKMkldx8KOrmGQa
l5x2Y6yWbei2xS+cSSX1AW7XfKsZRcLP0FVCYGB7p+MTh8gBseamo3Wu+v06FxiT
k3xG7epwBoTF8WH2LVKk1ZCBQ6DzdAO+utNXo4GUMIGRMAkGA1UdEwQCMAAwHQYD
VR0OBBYEFGkZFCMvY5EjEvMo/1WOOFxepDNHMEMGA1UdIwQ8MDqAFBU0X7ZvSoCk
ex/e8yp17d9vTUSjoRekFTATMREwDwYDVQQDDAhvdnBuMCBDQYIJAMPDzj55WGfa
MBMGA1UdJQQMMAoGCCsGAQUFBwMCMAsGA1UdDwQEAwIHgDAKBggqhkjOPQQDAgNn
ADBkAjB2d+hbqMrOLL8253J9535H6Y/ZiVTJAW/ONGniCYlcgjF03CANk+4YciTx
KucIQ/UCME/Gs5JCls/IkGxTIcXKWeYFF8puHVrHhg0xr9fPnV+AZA0EDbgilpE0
JLH45zwyuA==
-----END CERTIFICATE-----
