Certificate:
    Data:
        Version: 3 (0x2)
        Serial Number: 2 (0x2)
    Signature Algorithm: ecdsa-with-SHA256
        Issuer: CN=ovpn0 CA
        Validity
            Not Before: May  5 22:39:51 2017 GMT
            Not After : May  3 22:39:51 2027 GMT
        Subject: CN=achep
        Subject Public Key Info:
            Public Key Algorithm: id-ecPublicKey
                Public-Key: (384 bit)
                pub: 
                    04:c7:53:b1:47:b3:f2:0d:da:6a:4a:6d:c9:2c:6b:
                    b9:9c:86:66:f0:4f:d4:c0:4b:36:ac:05:77:36:7f:
                    0e:f7:93:ea:1f:8c:ab:c3:93:b8:53:ab:f2:48:5d:
                    02:d6:04:69:02:e9:d7:90:2f:7b:dc:76:85:8a:1c:
                    e5:aa:d8:d2:a7:78:d8:e0:9f:e4:ca:78:cb:92:bb:
                    5a:9d:11:10:28:8c:6b:47:75:ac:52:8b:94:0a:8c:
                    ec:be:29:06:8e:78:32
                ASN1 OID: secp384r1
                NIST CURVE: P-384
        X509v3 extensions:
            X509v3 Basic Constraints: 
                CA:FALSE
            X509v3 Subject Key Identifier: 
                AE:2E:E9:0F:90:A6:72:CD:28:AE:DE:4F:92:AD:1D:96:A8:FF:57:94
            X509v3 Authority Key Identifier: 
                keyid:15:34:5F:B6:6F:4A:80:A4:7B:1F:DE:F3:2A:75:ED:DF:6F:4D:44:A3
                DirName:/CN=ovpn0 CA
                serial:C3:C3:CE:3E:79:58:67:DA

            X509v3 Extended Key Usage: 
                TLS Web Client Authentication
            X509v3 Key Usage: 
                Digital Signature
    Signature Algorithm: ecdsa-with-SHA256
         30:65:02:30:14:85:53:18:41:03:3e:b4:e0:f2:bd:50:be:ed:
         a8:1e:4c:57:0f:34:de:57:e4:fd:99:32:6d:f5:7b:94:6a:af:
         bc:01:99:cd:e4:8e:ad:10:f2:df:19:19:87:67:1b:6b:02:31:
         00:b8:9a:44:d4:26:1a:03:2d:6c:65:08:be:e7:da:68:ed:cc:
         46:d4:46:26:a8:47:07:1f:c2:be:3d:06:e2:6a:25:b3:1a:d2:
         e6:3c:06:4e:64:bd:0d:68:25:98:d0:78:30
-----BEGIN CERTIFICATE-----
MIIB5DCCAWqgAwIBAgIBAjAKBggqhkjOPQQDAjATMREwDwYDVQQDDAhvdnBuMCBD
QTAeFw0xNzA1MDUyMjM5NTFaFw0yNzA1MDMyMjM5NTFaMBAxDjAMBgNVBAMMBWFj
aGVwMHYwEAYHKoZIzj0CAQYFK4EEACIDYgAEx1OxR7PyDdpqSm3JLGu5nIZm8E/U
wEs2rAV3Nn8O95PqH4yrw5O4U6vySF0C1gRpAunXkC973HaFihzlqtjSp3jY4J/k
ynjLkrtanREQKIxrR3WsUouUCozsvikGjngyo4GUMIGRMAkGA1UdEwQCMAAwHQYD
VR0OBBYEFK4u6Q+QpnLNKK7eT5KtHZao/1eUMEMGA1UdIwQ8MDqAFBU0X7ZvSoCk
ex/e8yp17d9vTUSjoRekFTATMREwDwYDVQQDDAhvdnBuMCBDQYIJAMPDzj55WGfa
MBMGA1UdJQQMMAoGCCsGAQUFBwMCMAsGA1UdDwQEAwIHgDAKBggqhkjOPQQDAgNo
ADBlAjAUhVMYQQM+tODyvVC+7ageTFcPNN5X5P2ZMm31e5Rqr7wBmc3kjq0Q8t8Z
GYdnG2sCMQC4mkTUJhoDLWxlCL7n2mjtzEbURiaoRwcfwr49BuJqJbMa0uY8Bk5k
vQ1oJZjQeDA=
-----END CERTIFICATE-----
